target datalayout = "e-m:e-p270:32:32-p271:32:32-p272:64:64-i64:64-i128:128-f80:128-n8:16:32:64-S128"
target triple = "x86_64-pc-linux-gnu"

%struct.spa_callbacks = type { ptr, ptr }
%struct.spa_pod = type { i32, i32 }
%struct.spa_pod_builder = type { ptr, i32, i32, %struct.spa_pod_builder_state, %struct.spa_callbacks }
%struct.spa_pod_builder_state = type { i32, i32, ptr }
%struct.spa_pod_frame = type { %struct.spa_pod, ptr, i32, i32 }
%struct.spa_pod_builder_callbacks = type { i32, ptr }

@__const.spa_pod_builder_pop.p = private unnamed_addr constant %struct.spa_pod { i32 0, i32 1 }, align 4

; Function Attrs: nounwind uwtable
define internal i32 @spa_pod_builder_pad(ptr noundef %0, i32 noundef %1) #0 {
  %3 = alloca ptr, align 8
  %4 = alloca i32, align 4
  %5 = alloca i64, align 8
  store ptr %0, ptr %3, align 8
  store i32 %1, ptr %4, align 4
  store i64 0, ptr %5, align 8
  %6 = load i32, ptr %4, align 4
  %7 = sub i32 %6, 1
  %8 = or i32 %7, 7
  %9 = add i32 %8, 1
  %10 = load i32, ptr %4, align 4
  %11 = sub i32 %9, %10
  store i32 %11, ptr %4, align 4
  %12 = load i32, ptr %4, align 4
  %13 = icmp ne i32 %12, 0
  br i1 %13, label %14, label %18

14:                                               ; preds = %2
  %15 = load ptr, ptr %3, align 8
  %16 = load i32, ptr %4, align 4
  %17 = call i32 @spa_pod_builder_raw(ptr noundef %15, ptr noundef %5, i32 noundef %16)
  br label %19

18:                                               ; preds = %2
  br label %19

19:                                               ; preds = %18, %14
  %20 = phi i32 [ %17, %14 ], [ 0, %18 ]
  ret i32 %20
}

; Function Attrs: nounwind uwtable
define internal ptr @spa_pod_builder_frame(ptr noundef %0, ptr noundef %1) #0 {
  %3 = alloca ptr, align 8
  %4 = alloca ptr, align 8
  %5 = alloca ptr, align 8
  store ptr %0, ptr %4, align 8
  store ptr %1, ptr %5, align 8
  %6 = load ptr, ptr %5, align 8
  %7 = getelementptr inbounds %struct.spa_pod_frame, ptr %6, i32 0, i32 2
  %8 = load i32, ptr %7, align 8
  %9 = zext i32 %8 to i64
  %10 = load ptr, ptr %5, align 8
  %11 = getelementptr inbounds %struct.spa_pod_frame, ptr %10, i32 0, i32 0
  %12 = getelementptr inbounds %struct.spa_pod, ptr %11, i32 0, i32 0
  %13 = load i32, ptr %12, align 8
  %14 = zext i32 %13 to i64
  %15 = add i64 8, %14
  %16 = add i64 %9, %15
  %17 = load ptr, ptr %4, align 8
  %18 = getelementptr inbounds %struct.spa_pod_builder, ptr %17, i32 0, i32 1
  %19 = load i32, ptr %18, align 8
  %20 = zext i32 %19 to i64
  %21 = icmp ule i64 %16, %20
  br i1 %21, label %22, label %33

22:                                               ; preds = %2
  %23 = load ptr, ptr %4, align 8
  %24 = getelementptr inbounds %struct.spa_pod_builder, ptr %23, i32 0, i32 0
  %25 = load ptr, ptr %24, align 8
  %26 = ptrtoint ptr %25 to i64
  %27 = load ptr, ptr %5, align 8
  %28 = getelementptr inbounds %struct.spa_pod_frame, ptr %27, i32 0, i32 2
  %29 = load i32, ptr %28, align 8
  %30 = zext i32 %29 to i64
  %31 = add i64 %26, %30
  %32 = inttoptr i64 %31 to ptr
  store ptr %32, ptr %3, align 8
  br label %34

33:                                               ; preds = %2
  store ptr null, ptr %3, align 8
  br label %34

34:                                               ; preds = %33, %22
  %35 = load ptr, ptr %3, align 8
  ret ptr %35
}

; Function Attrs: nounwind uwtable
define internal i32 @spa_pod_builder_raw(ptr noundef %0, ptr noundef %1, i32 noundef %2) #0 {
  %4 = alloca ptr, align 8
  %5 = alloca ptr, align 8
  %6 = alloca i32, align 4
  %7 = alloca i32, align 4
  %8 = alloca ptr, align 8
  %9 = alloca i32, align 4
  %10 = alloca ptr, align 8
  %11 = alloca i32, align 4
  store ptr %0, ptr %4, align 8
  store ptr %1, ptr %5, align 8
  store i32 %2, ptr %6, align 4
  store i32 0, ptr %7, align 4
  %12 = load ptr, ptr %4, align 8
  %13 = getelementptr inbounds %struct.spa_pod_builder, ptr %12, i32 0, i32 3
  %14 = getelementptr inbounds %struct.spa_pod_builder_state, ptr %13, i32 0, i32 0
  %15 = load i32, ptr %14, align 8
  store i32 %15, ptr %9, align 4
  %16 = load i32, ptr %9, align 4
  %17 = load i32, ptr %6, align 4
  %18 = add i32 %16, %17
  %19 = load ptr, ptr %4, align 8
  %20 = getelementptr inbounds %struct.spa_pod_builder, ptr %19, i32 0, i32 1
  %21 = load i32, ptr %20, align 8
  %22 = icmp ugt i32 %18, %21
  br i1 %22, label %23, label %63

23:                                               ; preds = %3
  store i32 -28, ptr %7, align 4
  %24 = load i32, ptr %9, align 4
  %25 = load ptr, ptr %4, align 8
  %26 = getelementptr inbounds %struct.spa_pod_builder, ptr %25, i32 0, i32 1
  %27 = load i32, ptr %26, align 8
  %28 = icmp ule i32 %24, %27
  br i1 %28, label %29, label %62

29:                                               ; preds = %23
  %30 = load ptr, ptr %4, align 8
  %31 = getelementptr inbounds %struct.spa_pod_builder, ptr %30, i32 0, i32 4
  %32 = getelementptr inbounds %struct.spa_callbacks, ptr %31, i32 0, i32 0
  %33 = load ptr, ptr %32, align 8
  store ptr %33, ptr %10, align 8
  %34 = load ptr, ptr %10, align 8
  %35 = icmp ne ptr %34, null
  br i1 %35, label %36, label %41

36:                                               ; preds = %29
  %37 = load ptr, ptr %10, align 8
  %38 = getelementptr inbounds %struct.spa_pod_builder_callbacks, ptr %37, i32 0, i32 1
  %39 = load ptr, ptr %38, align 8
  %40 = icmp ne ptr %39, null
  br label %41

41:                                               ; preds = %36, %29
  %42 = phi i1 [ false, %29 ], [ %40, %36 ]
  %43 = xor i1 %42, true
  %44 = xor i1 %43, true
  %45 = zext i1 %44 to i32
  %46 = sext i32 %45 to i64
  %47 = icmp ne i64 %46, 0
  br i1 %47, label %48, label %60

48:                                               ; preds = %41
  %49 = load ptr, ptr %10, align 8
  %50 = getelementptr inbounds %struct.spa_pod_builder_callbacks, ptr %49, i32 0, i32 1
  %51 = load ptr, ptr %50, align 8
  %52 = load ptr, ptr %4, align 8
  %53 = getelementptr inbounds %struct.spa_pod_builder, ptr %52, i32 0, i32 4
  %54 = getelementptr inbounds %struct.spa_callbacks, ptr %53, i32 0, i32 1
  %55 = load ptr, ptr %54, align 8
  %56 = load i32, ptr %9, align 4
  %57 = load i32, ptr %6, align 4
  %58 = add i32 %56, %57
  %59 = call i32 %51(ptr noundef %55, i32 noundef %58)
  store i32 %59, ptr %7, align 4
  br label %60

60:                                               ; preds = %48, %41
  %61 = load i32, ptr %7, align 4
  store i32 %61, ptr %11, align 4
  br label %62

62:                                               ; preds = %60, %23
  br label %63

63:                                               ; preds = %62, %3
  %64 = load i32, ptr %7, align 4
  %65 = icmp eq i32 %64, 0
  br i1 %65, label %66, label %81

66:                                               ; preds = %63
  %67 = load ptr, ptr %5, align 8
  %68 = icmp ne ptr %67, null
  br i1 %68, label %69, label %81

69:                                               ; preds = %66
  %70 = load ptr, ptr %4, align 8
  %71 = getelementptr inbounds %struct.spa_pod_builder, ptr %70, i32 0, i32 0
  %72 = load ptr, ptr %71, align 8
  %73 = ptrtoint ptr %72 to i64
  %74 = load i32, ptr %9, align 4
  %75 = zext i32 %74 to i64
  %76 = add i64 %73, %75
  %77 = inttoptr i64 %76 to ptr
  %78 = load ptr, ptr %5, align 8
  %79 = load i32, ptr %6, align 4
  %80 = zext i32 %79 to i64
  call void @llvm.memcpy.p0.p0.i64(ptr align 1 %77, ptr align 1 %78, i64 %80, i1 false)
  br label %81

81:                                               ; preds = %69, %66, %63
  %82 = load i32, ptr %6, align 4
  %83 = load ptr, ptr %4, align 8
  %84 = getelementptr inbounds %struct.spa_pod_builder, ptr %83, i32 0, i32 3
  %85 = getelementptr inbounds %struct.spa_pod_builder_state, ptr %84, i32 0, i32 0
  %86 = load i32, ptr %85, align 8
  %87 = add i32 %86, %82
  store i32 %87, ptr %85, align 8
  %88 = load ptr, ptr %4, align 8
  %89 = getelementptr inbounds %struct.spa_pod_builder, ptr %88, i32 0, i32 3
  %90 = getelementptr inbounds %struct.spa_pod_builder_state, ptr %89, i32 0, i32 2
  %91 = load ptr, ptr %90, align 8
  store ptr %91, ptr %8, align 8
  br label %92

92:                                               ; preds = %102, %81
  %93 = load ptr, ptr %8, align 8
  %94 = icmp ne ptr %93, null
  br i1 %94, label %95, label %106

95:                                               ; preds = %92
  %96 = load i32, ptr %6, align 4
  %97 = load ptr, ptr %8, align 8
  %98 = getelementptr inbounds %struct.spa_pod_frame, ptr %97, i32 0, i32 0
  %99 = getelementptr inbounds %struct.spa_pod, ptr %98, i32 0, i32 0
  %100 = load i32, ptr %99, align 8
  %101 = add i32 %100, %96
  store i32 %101, ptr %99, align 8
  br label %102

102:                                              ; preds = %95
  %103 = load ptr, ptr %8, align 8
  %104 = getelementptr inbounds %struct.spa_pod_frame, ptr %103, i32 0, i32 1
  %105 = load ptr, ptr %104, align 8
  store ptr %105, ptr %8, align 8
  br label %92, !llvm.loop !18

106:                                              ; preds = %92
  %107 = load i32, ptr %7, align 4
  ret i32 %107
}

; Function Attrs: nounwind uwtable
define internal ptr @spa_pod_builder_pop(ptr noundef %0, ptr noundef %1) #0 {
  %3 = alloca ptr, align 8
  %4 = alloca ptr, align 8
  %5 = alloca ptr, align 8
  %6 = alloca %struct.spa_pod, align 4
  store ptr %0, ptr %3, align 8
  store ptr %1, ptr %4, align 8
  %7 = load ptr, ptr %3, align 8
  %8 = getelementptr inbounds %struct.spa_pod_builder, ptr %7, i32 0, i32 3
  %9 = getelementptr inbounds %struct.spa_pod_builder_state, ptr %8, i32 0, i32 1
  %10 = load i32, ptr %9, align 4
  %11 = and i32 %10, 2
  %12 = icmp eq i32 %11, 2
  br i1 %12, label %13, label %16

13:                                               ; preds = %2
  call void @llvm.memcpy.p0.p0.i64(ptr align 4 %6, ptr align 4 @__const.spa_pod_builder_pop.p, i64 8, i1 false)
  %14 = load ptr, ptr %3, align 8
  %15 = call i32 @spa_pod_builder_raw(ptr noundef %14, ptr noundef %6, i32 noundef 8)
  br label %16

16:                                               ; preds = %13, %2
  %17 = load ptr, ptr %3, align 8
  %18 = load ptr, ptr %4, align 8
  %19 = call ptr @spa_pod_builder_frame(ptr noundef %17, ptr noundef %18)
  store ptr %19, ptr %5, align 8
  %20 = icmp ne ptr %19, null
  br i1 %20, label %21, label %25

21:                                               ; preds = %16
  %22 = load ptr, ptr %5, align 8
  %23 = load ptr, ptr %4, align 8
  %24 = getelementptr inbounds %struct.spa_pod_frame, ptr %23, i32 0, i32 0
  call void @llvm.memcpy.p0.p0.i64(ptr align 4 %22, ptr align 8 %24, i64 8, i1 false)
  br label %25

25:                                               ; preds = %21, %16
  %26 = load ptr, ptr %4, align 8
  %27 = getelementptr inbounds %struct.spa_pod_frame, ptr %26, i32 0, i32 1
  %28 = load ptr, ptr %27, align 8
  %29 = load ptr, ptr %3, align 8
  %30 = getelementptr inbounds %struct.spa_pod_builder, ptr %29, i32 0, i32 3
  %31 = getelementptr inbounds %struct.spa_pod_builder_state, ptr %30, i32 0, i32 2
  store ptr %28, ptr %31, align 8
  %32 = load ptr, ptr %4, align 8
  %33 = getelementptr inbounds %struct.spa_pod_frame, ptr %32, i32 0, i32 3
  %34 = load i32, ptr %33, align 4
  %35 = load ptr, ptr %3, align 8
  %36 = getelementptr inbounds %struct.spa_pod_builder, ptr %35, i32 0, i32 3
  %37 = getelementptr inbounds %struct.spa_pod_builder_state, ptr %36, i32 0, i32 1
  store i32 %34, ptr %37, align 4
  %38 = load ptr, ptr %3, align 8
  %39 = load ptr, ptr %3, align 8
  %40 = getelementptr inbounds %struct.spa_pod_builder, ptr %39, i32 0, i32 3
  %41 = getelementptr inbounds %struct.spa_pod_builder_state, ptr %40, i32 0, i32 0
  %42 = load i32, ptr %41, align 8
  %43 = call i32 @spa_pod_builder_pad(ptr noundef %38, i32 noundef %42)
  %44 = load ptr, ptr %5, align 8
  ret ptr %44
}