; Function Attrs: nounwind uwtable
define internal fastcc noundef ptr @spa_pod_builder_pop(ptr nocapture noundef %0, ptr nocapture noundef readonly %1) unnamed_addr #3 {
  %3 = alloca i64, align 8
  %4 = getelementptr inbounds i8, ptr %0, i64 20
  %5 = load i32, ptr %4, align 4
  %6 = and i32 %5, 2
  %.not = icmp eq i32 %6, 0
  br i1 %.not, label %spa_pod_builder_raw.exit, label %7

7:                                                ; preds = %2
  %8 = getelementptr inbounds i8, ptr %0, i64 16
  %9 = load i32, ptr %8, align 8
  %10 = add i32 %9, 8
  %11 = getelementptr inbounds i8, ptr %0, i64 8
  %12 = load i32, ptr %11, align 8
  %13 = icmp ugt i32 %10, %12
  br i1 %13, label %14, label %.critedge.i.thread

14:                                               ; preds = %7
  %.not.i = icmp ugt i32 %9, %12
  br i1 %.not.i, label %.critedge.thread.i, label %15

15:                                               ; preds = %14
  %16 = getelementptr inbounds i8, ptr %0, i64 32
  %17 = load ptr, ptr %16, align 8
  %.not33.i = icmp eq ptr %17, null
  br i1 %.not33.i, label %.critedge.thread.i, label %18

18:                                               ; preds = %15
  %19 = getelementptr inbounds i8, ptr %17, i64 8
  %20 = load ptr, ptr %19, align 8
  %.not38.i = icmp eq ptr %20, null
  br i1 %.not38.i, label %.critedge.thread.i, label %.critedge.i

.critedge.i:                                      ; preds = %18
  %21 = getelementptr inbounds i8, ptr %0, i64 40
  %22 = load ptr, ptr %21, align 8
  %23 = tail call i32 %20(ptr noundef %22, i32 noundef %10) #15
  %24 = icmp eq i32 %23, 0
  br i1 %24, label %.critedge.i.thread, label %.critedge.thread.i

.critedge.i.thread:                               ; preds = %7, %.critedge.i
  %25 = load ptr, ptr %0, align 8
  %26 = ptrtoint ptr %25 to i64
  %27 = zext i32 %9 to i64
  %28 = add i64 %26, %27
  %29 = inttoptr i64 %28 to ptr
  store i64 4294967296, ptr %29, align 1
  br label %.critedge.thread.i

.critedge.thread.i:                               ; preds = %.critedge.i.thread, %.critedge.i, %18, %15, %14
  %30 = load i32, ptr %8, align 8
  %31 = add i32 %30, 8
  store i32 %31, ptr %8, align 8
  %32 = getelementptr inbounds i8, ptr %0, i64 24
  %.02839.i = load ptr, ptr %32, align 8
  %.not3440.i = icmp eq ptr %.02839.i, null
  br i1 %.not3440.i, label %spa_pod_builder_raw.exit, label %.lr.ph.i

.lr.ph.i:                                         ; preds = %.critedge.thread.i, %.lr.ph.i
  %.02841.i = phi ptr [ %.028.i, %.lr.ph.i ], [ %.02839.i, %.critedge.thread.i ]
  %33 = load i32, ptr %.02841.i, align 8
  %34 = add i32 %33, 8
  store i32 %34, ptr %.02841.i, align 8
  %35 = getelementptr inbounds i8, ptr %.02841.i, i64 8
  %.028.i = load ptr, ptr %35, align 8
  %.not34.i = icmp eq ptr %.028.i, null
  br i1 %.not34.i, label %spa_pod_builder_raw.exit, label %.lr.ph.i, !llvm.loop !19

spa_pod_builder_raw.exit:                         ; preds = %.lr.ph.i, %.critedge.thread.i, %2
  %.val = load i32, ptr %1, align 8
  %36 = getelementptr i8, ptr %1, i64 16
  %.val14 = load i32, ptr %36, align 8
  %37 = zext i32 %.val14 to i64
  %38 = zext i32 %.val to i64
  %39 = add nuw nsw i64 %38, 8
  %40 = add nuw nsw i64 %39, %37
  %41 = getelementptr inbounds i8, ptr %0, i64 8
  %42 = load i32, ptr %41, align 8
  %43 = zext i32 %42 to i64
  %.not.i15 = icmp ugt i64 %40, %43
  br i1 %.not.i15, label %spa_pod_builder_frame.exit.thread, label %spa_pod_builder_frame.exit

spa_pod_builder_frame.exit:                       ; preds = %spa_pod_builder_raw.exit
  %44 = load ptr, ptr %0, align 8
  %45 = ptrtoint ptr %44 to i64
  %46 = add i64 %45, %37
  %.not13 = icmp eq i64 %46, 0
  br i1 %.not13, label %spa_pod_builder_frame.exit.thread, label %47

47:                                               ; preds = %spa_pod_builder_frame.exit
  %48 = inttoptr i64 %46 to ptr
  %49 = load i64, ptr %1, align 8
  store i64 %49, ptr %48, align 4
  br label %spa_pod_builder_frame.exit.thread

spa_pod_builder_frame.exit.thread:                ; preds = %spa_pod_builder_raw.exit, %47, %spa_pod_builder_frame.exit
  %.0.i20 = phi ptr [ %48, %47 ], [ null, %spa_pod_builder_frame.exit ], [ null, %spa_pod_builder_raw.exit ]
  %50 = getelementptr inbounds i8, ptr %0, i64 16
  %51 = getelementptr inbounds i8, ptr %1, i64 8
  %52 = load ptr, ptr %51, align 8
  %53 = getelementptr inbounds i8, ptr %0, i64 24
  store ptr %52, ptr %53, align 8
  %54 = getelementptr inbounds i8, ptr %1, i64 20
  %55 = load i32, ptr %54, align 4
  store i32 %55, ptr %4, align 4
  %56 = load i32, ptr %50, align 8
  call void @llvm.lifetime.start.p0(i64 8, ptr nonnull %3)
  store i64 0, ptr %3, align 8
  %57 = add i32 %56, -1
  %58 = or i32 %57, 7
  %59 = add i32 %58, 1
  %.not.i16 = icmp eq i32 %59, %56
  br i1 %.not.i16, label %spa_pod_builder_pad.exit, label %60

60:                                               ; preds = %spa_pod_builder_frame.exit.thread
  %61 = sub i32 %59, %56
  %62 = load i32, ptr %41, align 8
  %63 = icmp ugt i32 %59, %62
  br i1 %63, label %64, label %.critedge.i.thread.i

64:                                               ; preds = %60
  %.not.i.i = icmp ugt i32 %56, %62
  br i1 %.not.i.i, label %.critedge.thread.i.i, label %65

65:                                               ; preds = %64
  %66 = getelementptr inbounds i8, ptr %0, i64 32
  %67 = load ptr, ptr %66, align 8
  %.not33.i.i = icmp eq ptr %67, null
  br i1 %.not33.i.i, label %.critedge.thread.i.i, label %68

68:                                               ; preds = %65
  %69 = getelementptr inbounds i8, ptr %67, i64 8
  %70 = load ptr, ptr %69, align 8
  %.not38.i.i = icmp eq ptr %70, null
  br i1 %.not38.i.i, label %.critedge.thread.i.i, label %.critedge.i.i

.critedge.i.i:                                    ; preds = %68
  %71 = getelementptr inbounds i8, ptr %0, i64 40
  %72 = load ptr, ptr %71, align 8
  %73 = tail call i32 %70(ptr noundef %72, i32 noundef %59) #15
  %74 = icmp eq i32 %73, 0
  br i1 %74, label %.critedge.i.thread.i, label %.critedge.thread.i.i

.critedge.i.thread.i:                             ; preds = %.critedge.i.i, %60
  %75 = load ptr, ptr %0, align 8
  %76 = ptrtoint ptr %75 to i64
  %77 = zext i32 %56 to i64
  %78 = add i64 %76, %77
  %79 = inttoptr i64 %78 to ptr
  %80 = zext i32 %61 to i64
  call void @llvm.memcpy.p0.p0.i64(ptr align 1 %79, ptr nonnull readonly align 8 %3, i64 %80, i1 false)
  br label %.critedge.thread.i.i

.critedge.thread.i.i:                             ; preds = %.critedge.i.thread.i, %.critedge.i.i, %68, %65, %64
  %81 = load i32, ptr %50, align 8
  %82 = add i32 %81, %61
  store i32 %82, ptr %50, align 8
  %.02839.i.i = load ptr, ptr %53, align 8
  %.not3440.i.i = icmp eq ptr %.02839.i.i, null
  br i1 %.not3440.i.i, label %spa_pod_builder_pad.exit, label %.lr.ph.i.i

.lr.ph.i.i:                                       ; preds = %.critedge.thread.i.i, %.lr.ph.i.i
  %.02841.i.i = phi ptr [ %.028.i.i, %.lr.ph.i.i ], [ %.02839.i.i, %.critedge.thread.i.i ]
  %83 = load i32, ptr %.02841.i.i, align 8
  %84 = add i32 %83, %61
  store i32 %84, ptr %.02841.i.i, align 8
  %85 = getelementptr inbounds i8, ptr %.02841.i.i, i64 8
  %.028.i.i = load ptr, ptr %85, align 8
  %.not34.i.i = icmp eq ptr %.028.i.i, null
  br i1 %.not34.i.i, label %spa_pod_builder_pad.exit, label %.lr.ph.i.i, !llvm.loop !19

spa_pod_builder_pad.exit:                         ; preds = %.lr.ph.i.i, %spa_pod_builder_frame.exit.thread, %.critedge.thread.i.i
  call void @llvm.lifetime.end.p0(i64 8, ptr nonnull %3)
  ret ptr %.0.i20
}